(dp0
S'MOHAN'
p1
(lp2
S'pass'
p3
aI17
aI9
aI8
aI9
aI0
asS'RAJ'
p4
(lp5
g3
aI10
aI9
aI1
aI9
aI0
asS'root'
p6
(lp7
g3
aI20
aI11
aI9
aI5
aI6
asS'SOHAM'
p8
(lp9
g3
aI11
aI9
aI2
aI9
aI0
asS'SONU'
p10
(lp11
g3
aI15
aI15
aI0
aI9
aI6
as.