(lp0
(dp1
S'mystify'
p2
(lp3
S'make obscure or mysterious.'
p4
aS'utterly bewilder or perplex (someone)'
p5
asS'squawk'
p6
(lp7
S'four-digit octal numbers; the dials on a transponder read from zero to seven, inclusive.'
p8
aS'A discrete transponder code assigned by air traffic controllers to uniquely identify an aircraft.'
p9
asS'gizmo'
p10
(lp11
S'Key on certain flute'
p12
aS's an effects device for the electric guitar and bass guitar'
p13
asS'bagpipes'
p14
(lp15
S'a class of musical instrument, aerophones, using enclosed reeds fed from a constant reservoir of air in the form of a bag.'
p16
aS'have been played for centuries (and continue to be played) throughout large parts of Europe, Turkey, the Caucasus, around the Persian Gulf, Northern Africa and North America.'
p17
asS'kiosk'
p18
(lp19
S'a public booth'
p20
aS'a small open-fronted hut or cubicle from newspaper, refreshments, tickets etc are sold.'
p21
asS'vortex'
p22
(lp23
S'a major component of turbulent flow'
p24
aS'a region in a fluid in which the flow is rotating around an axis line, which may be straight or curved.'
p25
asS'askew'
p26
(lp27
S'Crooked; Awry'
p28
aS'With disapproval, scorn, contempt, etc.'
p29
asS'wimpy'
p30
(lp31
S'A timid or unadventurous person'
p32
aS'weak and ineffectual'
p33
asS'zombie'
p34
(lp35
S'Most commonly found in horror and fantasy genre works.'
p36
aS'Their earliest depictions in the comics medium was made DC Comic character Solomon Grundy in 1944 Green Lantern story'
p37
asS'haphazard'
p38
(lp39
S'lacking any obvious principle of organization'
p40
aS'random, unplanned, chaotic etc.'
p41
asS'microwave'
p42
(lp43
S'used in navigation, radars, Spectroscopy etc.'
p44
aS'form of electro-magnetic radiation'
p45
asS'croquet'
p46
(lp47
S'A sport involving hitting plastic or wooden balls with a mallet through hoops embedded in a grass playging court'
p48
aS"The first set of rules for this sport was registered by Isaac Spratt in November 1856 with the Stationers' Company in London."
p49
asS'zodiac'
p50
(lp51
S'In historical astronomy, circle of twelve 30degree divisions of celestial longitude that are centered upon the ecliptic, the apparent path of the Sun across the celestial sphere over the course of the year.'
p52
aS'12 sign corresponding to 12 longitudinal divivsion'
p53
asS'banjo'
p54
(lp55
S'Six-stringed instrument with a thin membrane stretched over a frame or cavity as a resonator'
p56
aS'In Brazil, derived from the cavaco, and is especially associated with Samba and its variants.'
p57
asS'axiom'
p58
(lp59
S"From Greek origin that means,'what is thought fitting'"
p60
aS'In Mathematics, a statement or proposition on which an abstractly defined structure is based.'
p61
asS'abruptly'
p62
(lp63
S'Terminating or changing suddenly'
p64
aS'Suddenly, Unexpectedly'
p65
asa(dp66
S'hyphen'
p67
(lp68
S'is a punctuation mark'
p69
aS'used to join words'
p70
asS'swivel'
p71
(lp72
S'A coupling between two parts enabling one to revolve without turning the other.'
p73
aS'turn around a point or axis'
p74
asS'schizophrenia'
p75
(lp76
S'a mental disorder'
p77
aS'disorder characterized by abnormal social behavior and failure to recognize what is real'
p78
asS'waltz'
p79
(lp80
S'a form of dance'
p81
aS'a smooth, progressive ballroom and folk dance, normally in triple time, performed primarily in closed position.'
p82
asS'haiku'
p83
(lp84
S'is a very short poem in the English language.'
p85
aS'is a three-line observation about a fleeting moment involving nature.'
p86
asS'foxglove'
p87
(lp88
S'A plant'
p89
aS'Also known as Digitalis'
p90
asS'topaz'
p91
(lp92
S'A gem stone'
p93
aS'a silicate mineral of aluminium and fluorine'
p94
asS'jigsaw'
p95
(lp96
S'a machine saw with a fine blade enabling it to cut curved lines in a sheet of wood, metal, or plastic.'
p97
aS'a puzzle'
p98
asS'galvanize'
p99
(lp100
S'Shock or Excite (someone) into taking action'
p101
aS'protects iron from rusting'
p102
asS'gazebo'
p103
(lp104
S'is a pavilion building structure, sometimes octagonal or turret-shaped.'
p105
aS'often built in a park, garden or spacious public area.'
p106
asS'ivory'
p107
(lp108
S'is a hard, white material from the tusks '
p109
aS'word derives from the ancient Egyptian, through the Latin ebor- or ebur.'
p110
asS'quartz'
p111
(lp112
S"Second most abundant minerals in Earth's continental crust"
p113
aS'Used in Wristwatch'
p114
asS'exodus'
p115
(lp116
S'is the title given to an Old English alliterative poem in the Junius manuscript'
p117
aS'A movie was released with same name,starring Christian Bale and Aaron Paul.'
p118
asS'xylophone'
p119
(lp120
S' a musical instrument in the percussion family that consists of wooden bars struck by mallets.'
p121
aS'refers specifically to a chromatic instrument of somewhat higher pitch range'
p122
asS'zephyr'
p123
(lp124
S'A soft gentle breeze'
p125
aS'A fine cotton gingham'
p126
asS'larynx'
p127
(lp128
S'internal part of human body'
p129
aS'the hollow muscular organ forming an air passage to the lungs'
p130
asS'jovial'
p131
(lp132
S'sociable and genial'
p133
aS'cheerful and friendly'
p134
asS'jaywalk'
p135
(lp136
S'an urban traffic safety problem.'
p137
aS'to cross a street without taking advantage of provided means of safe crossing'
p138
asS'pneumonia'
p139
(lp140
S'presumed to be bacterial is treated with antibiotics.'
p141
aS'inflammatory condition of the lung affecting alveoli'
p142
asS'sphinx'
p143
(lp144
S'In Arabic, means Father of Dread'
p145
aS' is a mythical creature with, as a minimum, the head of a human and the body of a lion.'
p146
asS'marques'
p147
(lp148
S'is a nobleman of hereditary rank in various European peerages'
p149
aS' The term is also used to translate equivalent Asian styles, as in imperial China and Japan.'
p150
asS'zilch'
p151
(lp152
S"means 'nothing'(pronoun)"
p153
aS'not any, no (determiner)'
p154
asS'azure'
p155
(lp156
S'Bright blue in colour like acloudless sky'
p157
aS"Microsoft's Cloud Computing platform"
p158
asa.